target datalayout = "e-m:e-p270:32:32-p271:32:32-p272:64:64-i64:64-i128:128-f80:128-n8:16:32:64-S128"
target triple = "x86_64-pc-linux-gnu"

%struct.AVFilterLink = type { ptr, ptr, ptr, ptr, i32, i32, i32, i32, %struct.AVRational, i32, i32, i32, %struct.AVChannelLayout, %struct.AVRational, ptr, i32, %struct.AVFilterFormatsConfig, %struct.AVFilterFormatsConfig }
%struct.AVChannelLayout = type { i32, i32, %union.anon.1, ptr }
%union.anon.1 = type { i64 }
%struct.AVRational = type { i32, i32 }
%struct.AVFilterFormatsConfig = type { ptr, ptr, ptr, ptr, ptr }
%struct.AVFilterContext = type { ptr, ptr, ptr, ptr, ptr, i32, ptr, ptr, i32, ptr, ptr, i32, i32, ptr, ptr, ptr, ptr, i32, ptr, i32, i32 }
%struct.AspectContext = type { ptr, %struct.AVRational, %struct.AVRational, i32, ptr }
%struct.AVPixFmtDescriptor = type { ptr, i8, i8, i8, i64, [4 x %struct.AVComponentDescriptor], ptr }
%struct.AVComponentDescriptor = type { i32, i32, i32, i32, i32 }

@var_names = internal constant [8 x ptr] [ptr @.str.8, ptr @.str.9, ptr @.str.10, ptr @.str.11, ptr @.str.12, ptr @.str.13, ptr @.str.14, ptr null], align 16
@.str.6 = private unnamed_addr constant [43 x i8] c"Error when evaluating the expression '%s'\0A\00", align 1
@.str.7 = private unnamed_addr constant [38 x i8] c"Invalid string '%s' for aspect ratio\0A\00", align 1

; Function Attrs: nounwind uwtable
define internal i32 @get_aspect_ratio(ptr noundef %0, ptr noundef %1) #0 {
  %3 = alloca i32, align 4
  %4 = alloca ptr, align 8
  %5 = alloca ptr, align 8
  %6 = alloca ptr, align 8
  %7 = alloca ptr, align 8
  %8 = alloca ptr, align 8
  %9 = alloca [7 x double], align 16
  %10 = alloca double, align 8
  %11 = alloca i32, align 4
  %12 = alloca %struct.AVRational, align 4
  %13 = alloca i32, align 4
  store ptr %0, ptr %4, align 8, !tbaa !4
  store ptr %1, ptr %5, align 8, !tbaa !50
  call void @llvm.lifetime.start.p0(i64 8, ptr %6) #6
  %14 = load ptr, ptr %4, align 8, !tbaa !4
  %15 = getelementptr inbounds nuw %struct.AVFilterLink, ptr %14, i32 0, i32 2
  %16 = load ptr, ptr %15, align 8, !tbaa !11
  store ptr %16, ptr %6, align 8, !tbaa !39
  call void @llvm.lifetime.start.p0(i64 8, ptr %7) #6
  %17 = load ptr, ptr %4, align 8, !tbaa !4
  %18 = getelementptr inbounds nuw %struct.AVFilterLink, ptr %17, i32 0, i32 2
  %19 = load ptr, ptr %18, align 8, !tbaa !11
  %20 = getelementptr inbounds nuw %struct.AVFilterContext, ptr %19, i32 0, i32 9
  %21 = load ptr, ptr %20, align 8, !tbaa !23
  store ptr %21, ptr %7, align 8, !tbaa !33
  call void @llvm.lifetime.start.p0(i64 8, ptr %8) #6
  %22 = load ptr, ptr %4, align 8, !tbaa !4
  %23 = getelementptr inbounds nuw %struct.AVFilterLink, ptr %22, i32 0, i32 5
  %24 = load i32, ptr %23, align 4, !tbaa !52
  %25 = call ptr @av_pix_fmt_desc_get(i32 noundef %24)
  store ptr %25, ptr %8, align 8, !tbaa !53
  call void @llvm.lifetime.start.p0(i64 56, ptr %9) #6
  call void @llvm.lifetime.start.p0(i64 8, ptr %10) #6
  call void @llvm.lifetime.start.p0(i64 4, ptr %11) #6
  %26 = load ptr, ptr %4, align 8, !tbaa !4
  %27 = getelementptr inbounds nuw %struct.AVFilterLink, ptr %26, i32 0, i32 6
  %28 = load i32, ptr %27, align 8, !tbaa !45
  %29 = sitofp i32 %28 to double
  %30 = getelementptr inbounds [7 x double], ptr %9, i64 0, i64 0
  store double %29, ptr %30, align 16, !tbaa !55
  %31 = load ptr, ptr %4, align 8, !tbaa !4
  %32 = getelementptr inbounds nuw %struct.AVFilterLink, ptr %31, i32 0, i32 7
  %33 = load i32, ptr %32, align 4, !tbaa !44
  %34 = sitofp i32 %33 to double
  %35 = getelementptr inbounds [7 x double], ptr %9, i64 0, i64 1
  store double %34, ptr %35, align 8, !tbaa !55
  %36 = load ptr, ptr %4, align 8, !tbaa !4
  %37 = getelementptr inbounds nuw %struct.AVFilterLink, ptr %36, i32 0, i32 6
  %38 = load i32, ptr %37, align 8, !tbaa !45
  %39 = sitofp i32 %38 to double
  %40 = load ptr, ptr %4, align 8, !tbaa !4
  %41 = getelementptr inbounds nuw %struct.AVFilterLink, ptr %40, i32 0, i32 7
  %42 = load i32, ptr %41, align 4, !tbaa !44
  %43 = sitofp i32 %42 to double
  %44 = fdiv nsz double %39, %43
  %45 = getelementptr inbounds [7 x double], ptr %9, i64 0, i64 2
  store double %44, ptr %45, align 16, !tbaa !55
  %46 = load ptr, ptr %4, align 8, !tbaa !4
  %47 = getelementptr inbounds nuw %struct.AVFilterLink, ptr %46, i32 0, i32 8
  %48 = getelementptr inbounds nuw %struct.AVRational, ptr %47, i32 0, i32 0
  %49 = load i32, ptr %48, align 8, !tbaa !48
  %50 = icmp ne i32 %49, 0
  br i1 %50, label %51, label %63

51:                                               ; preds = %2
  %52 = load ptr, ptr %4, align 8, !tbaa !4
  %53 = getelementptr inbounds nuw %struct.AVFilterLink, ptr %52, i32 0, i32 8
  %54 = getelementptr inbounds nuw %struct.AVRational, ptr %53, i32 0, i32 0
  %55 = load i32, ptr %54, align 8, !tbaa !48
  %56 = sitofp i32 %55 to double
  %57 = load ptr, ptr %4, align 8, !tbaa !4
  %58 = getelementptr inbounds nuw %struct.AVFilterLink, ptr %57, i32 0, i32 8
  %59 = getelementptr inbounds nuw %struct.AVRational, ptr %58, i32 0, i32 1
  %60 = load i32, ptr %59, align 4, !tbaa !49
  %61 = sitofp i32 %60 to double
  %62 = fdiv nsz double %56, %61
  br label %64

63:                                               ; preds = %2
  br label %64

64:                                               ; preds = %63, %51
  %65 = phi nsz double [ %62, %51 ], [ 1.000000e+00, %63 ]
  %66 = getelementptr inbounds [7 x double], ptr %9, i64 0, i64 4
  store double %65, ptr %66, align 16, !tbaa !55
  %67 = getelementptr inbounds [7 x double], ptr %9, i64 0, i64 2
  %68 = load double, ptr %67, align 16, !tbaa !55
  %69 = getelementptr inbounds [7 x double], ptr %9, i64 0, i64 4
  %70 = load double, ptr %69, align 16, !tbaa !55
  %71 = fmul nsz double %68, %70
  %72 = getelementptr inbounds [7 x double], ptr %9, i64 0, i64 3
  store double %71, ptr %72, align 8, !tbaa !55
  %73 = load ptr, ptr %8, align 8, !tbaa !53
  %74 = getelementptr inbounds nuw %struct.AVPixFmtDescriptor, ptr %73, i32 0, i32 2
  %75 = load i8, ptr %74, align 1, !tbaa !57
  %76 = zext i8 %75 to i32
  %77 = shl i32 1, %76
  %78 = sitofp i32 %77 to double
  %79 = getelementptr inbounds [7 x double], ptr %9, i64 0, i64 5
  store double %78, ptr %79, align 8, !tbaa !55
  %80 = load ptr, ptr %8, align 8, !tbaa !53
  %81 = getelementptr inbounds nuw %struct.AVPixFmtDescriptor, ptr %80, i32 0, i32 3
  %82 = load i8, ptr %81, align 2, !tbaa !60
  %83 = zext i8 %82 to i32
  %84 = shl i32 1, %83
  %85 = sitofp i32 %84 to double
  %86 = getelementptr inbounds [7 x double], ptr %9, i64 0, i64 6
  store double %85, ptr %86, align 16, !tbaa !55
  %87 = load ptr, ptr %7, align 8, !tbaa !33
  %88 = getelementptr inbounds nuw %struct.AspectContext, ptr %87, i32 0, i32 4
  %89 = load ptr, ptr %88, align 8, !tbaa !61
  %90 = getelementptr inbounds [7 x double], ptr %9, i64 0, i64 0
  %91 = load ptr, ptr %6, align 8, !tbaa !39
  %92 = call i32 @av_expr_parse_and_eval(ptr noundef %10, ptr noundef %89, ptr noundef @var_names, ptr noundef %90, ptr noundef null, ptr noundef null, ptr noundef null, ptr noundef null, ptr noundef null, i32 noundef 0, ptr noundef %91)
  store i32 %92, ptr %11, align 4, !tbaa !36
  %93 = load i32, ptr %11, align 4, !tbaa !36
  %94 = icmp slt i32 %93, 0
  br i1 %94, label %95, label %105

95:                                               ; preds = %64
  %96 = load ptr, ptr %5, align 8, !tbaa !50
  %97 = load ptr, ptr %7, align 8, !tbaa !33
  %98 = getelementptr inbounds nuw %struct.AspectContext, ptr %97, i32 0, i32 4
  %99 = load ptr, ptr %98, align 8, !tbaa !61
  %100 = load ptr, ptr %7, align 8, !tbaa !33
  %101 = getelementptr inbounds nuw %struct.AspectContext, ptr %100, i32 0, i32 3
  %102 = load i32, ptr %101, align 8, !tbaa !62
  %103 = load ptr, ptr %6, align 8, !tbaa !39
  %104 = call i32 @av_parse_ratio(ptr noundef %96, ptr noundef %99, i32 noundef %102, i32 noundef 0, ptr noundef %103)
  store i32 %104, ptr %11, align 4, !tbaa !36
  br label %112

105:                                              ; preds = %64
  %106 = load ptr, ptr %5, align 8, !tbaa !50
  call void @llvm.lifetime.start.p0(i64 8, ptr %12) #6
  %107 = load double, ptr %10, align 8, !tbaa !55
  %108 = load ptr, ptr %7, align 8, !tbaa !33
  %109 = getelementptr inbounds nuw %struct.AspectContext, ptr %108, i32 0, i32 3
  %110 = load i32, ptr %109, align 8, !tbaa !62
  %111 = call i64 @av_d2q(double noundef %107, i32 noundef %110) #7
  store i64 %111, ptr %12, align 4
  call void @llvm.memcpy.p0.p0.i64(ptr align 4 %106, ptr align 4 %12, i64 8, i1 false), !tbaa.struct !35
  call void @llvm.lifetime.end.p0(i64 8, ptr %12) #6
  br label %112

112:                                              ; preds = %105, %95
  %113 = load i32, ptr %11, align 4, !tbaa !36
  %114 = icmp slt i32 %113, 0
  br i1 %114, label %115, label %121

115:                                              ; preds = %112
  %116 = load ptr, ptr %6, align 8, !tbaa !39
  %117 = load ptr, ptr %7, align 8, !tbaa !33
  %118 = getelementptr inbounds nuw %struct.AspectContext, ptr %117, i32 0, i32 4
  %119 = load ptr, ptr %118, align 8, !tbaa !61
  call void (ptr, i32, ptr, ...) @av_log(ptr noundef %116, i32 noundef 16, ptr noundef @.str.6, ptr noundef %119)
  %120 = load i32, ptr %11, align 4, !tbaa !36
  store i32 %120, ptr %3, align 4
  store i32 1, ptr %13, align 4
  br label %137

121:                                              ; preds = %112
  %122 = load ptr, ptr %5, align 8, !tbaa !50
  %123 = getelementptr inbounds nuw %struct.AVRational, ptr %122, i32 0, i32 0
  %124 = load i32, ptr %123, align 4, !tbaa !46
  %125 = icmp slt i32 %124, 0
  br i1 %125, label %131, label %126

126:                                              ; preds = %121
  %127 = load ptr, ptr %5, align 8, !tbaa !50
  %128 = getelementptr inbounds nuw %struct.AVRational, ptr %127, i32 0, i32 1
  %129 = load i32, ptr %128, align 4, !tbaa !47
  %130 = icmp sle i32 %129, 0
  br i1 %130, label %131, label %136

131:                                              ; preds = %126, %121
  %132 = load ptr, ptr %6, align 8, !tbaa !39
  %133 = load ptr, ptr %7, align 8, !tbaa !33
  %134 = getelementptr inbounds nuw %struct.AspectContext, ptr %133, i32 0, i32 4
  %135 = load ptr, ptr %134, align 8, !tbaa !61
  call void (ptr, i32, ptr, ...) @av_log(ptr noundef %132, i32 noundef 16, ptr noundef @.str.7, ptr noundef %135)
  store i32 -22, ptr %3, align 4
  store i32 1, ptr %13, align 4
  br label %137

136:                                              ; preds = %126
  store i32 0, ptr %3, align 4
  store i32 1, ptr %13, align 4
  br label %137

137:                                              ; preds = %136, %131, %115
  call void @llvm.lifetime.end.p0(i64 4, ptr %11) #6
  call void @llvm.lifetime.end.p0(i64 8, ptr %10) #6
  call void @llvm.lifetime.end.p0(i64 56, ptr %9) #6
  call void @llvm.lifetime.end.p0(i64 8, ptr %8) #6
  call void @llvm.lifetime.end.p0(i64 8, ptr %7) #6
  call void @llvm.lifetime.end.p0(i64 8, ptr %6) #6
  %138 = load i32, ptr %3, align 4
  ret i32 %138
}