; Function Attrs: nounwind uwtable
define internal fastcc range(i32 -2147483648, 1) i32 @get_aspect_ratio(ptr noundef readonly captures(none) %0, ptr noundef %1) unnamed_addr #0 {
  %3 = alloca [7 x double], align 16
  %4 = alloca double, align 8
  %5 = getelementptr inbounds nuw i8, ptr %0, i64 16
  %6 = load ptr, ptr %5, align 8, !tbaa !4
  %7 = getelementptr inbounds nuw i8, ptr %6, i64 72
  %8 = load ptr, ptr %7, align 8, !tbaa !19
  %9 = getelementptr inbounds nuw i8, ptr %0, i64 36
  %10 = load i32, ptr %9, align 4, !tbaa !44
  %11 = tail call ptr @av_pix_fmt_desc_get(i32 noundef %10) #4
  call void @llvm.lifetime.start.p0(i64 56, ptr nonnull %3) #4
  call void @llvm.lifetime.start.p0(i64 8, ptr nonnull %4) #4
  %12 = getelementptr inbounds nuw i8, ptr %0, i64 40
  %13 = load i32, ptr %12, align 8, !tbaa !39
  %14 = sitofp i32 %13 to double
  store double %14, ptr %3, align 16, !tbaa !45
  %15 = getelementptr inbounds nuw i8, ptr %0, i64 44
  %16 = load i32, ptr %15, align 4, !tbaa !38
  %17 = sitofp i32 %16 to double
  %18 = getelementptr inbounds nuw i8, ptr %3, i64 8
  store double %17, ptr %18, align 8, !tbaa !45
  %19 = fdiv nsz double %14, %17
  %20 = getelementptr inbounds nuw i8, ptr %3, i64 16
  store double %19, ptr %20, align 16, !tbaa !45
  %21 = getelementptr inbounds nuw i8, ptr %0, i64 48
  %22 = load i32, ptr %21, align 8, !tbaa !42
  %.not = icmp eq i32 %22, 0
  br i1 %.not, label %29, label %23

23:                                               ; preds = %2
  %24 = sitofp i32 %22 to double
  %25 = getelementptr inbounds nuw i8, ptr %0, i64 52
  %26 = load i32, ptr %25, align 4, !tbaa !43
  %27 = sitofp i32 %26 to double
  %28 = fdiv nsz double %24, %27
  br label %29

29:                                               ; preds = %2, %23
  %30 = phi nsz double [ %28, %23 ], [ 1.000000e+00, %2 ]
  %31 = getelementptr inbounds nuw i8, ptr %3, i64 32
  store double %30, ptr %31, align 16, !tbaa !45
  %32 = fmul nsz double %19, %30
  %33 = getelementptr inbounds nuw i8, ptr %3, i64 24
  store double %32, ptr %33, align 8, !tbaa !45
  %34 = getelementptr inbounds nuw i8, ptr %11, i64 9
  %35 = load i8, ptr %34, align 1, !tbaa !47
  %36 = zext nneg i8 %35 to i32
  %37 = shl nuw i32 1, %36
  %38 = sitofp i32 %37 to double
  %39 = getelementptr inbounds nuw i8, ptr %3, i64 40
  store double %38, ptr %39, align 8, !tbaa !45
  %40 = getelementptr inbounds nuw i8, ptr %11, i64 10
  %41 = load i8, ptr %40, align 2, !tbaa !50
  %42 = zext nneg i8 %41 to i32
  %43 = shl nuw i32 1, %42
  %44 = sitofp i32 %43 to double
  %45 = getelementptr inbounds nuw i8, ptr %3, i64 48
  store double %44, ptr %45, align 16, !tbaa !45
  %46 = getelementptr inbounds nuw i8, ptr %8, i64 32
  %47 = load ptr, ptr %46, align 8, !tbaa !51
  %48 = call i32 @av_expr_parse_and_eval(ptr noundef nonnull %4, ptr noundef %47, ptr noundef nonnull @var_names, ptr noundef nonnull %3, ptr noundef null, ptr noundef null, ptr noundef null, ptr noundef null, ptr noundef null, i32 noundef 0, ptr noundef nonnull %6) #4
  %49 = icmp slt i32 %48, 0
  %50 = getelementptr inbounds nuw i8, ptr %8, i64 24
  %51 = load i32, ptr %50, align 8, !tbaa !52
  br i1 %49, label %55, label %.thread

.thread:                                          ; preds = %29
  %52 = load double, ptr %4, align 8, !tbaa !45
  %53 = call i64 @av_d2q(double noundef %52, i32 noundef %51) #5
  store i64 %53, ptr %1, align 4
  %54 = trunc i64 %53 to i32
  br label %59

55:                                               ; preds = %29
  %56 = load ptr, ptr %46, align 8, !tbaa !51
  %57 = call i32 @av_parse_ratio(ptr noundef %1, ptr noundef %56, i32 noundef %51, i32 noundef 0, ptr noundef nonnull %6) #4
  %58 = icmp slt i32 %57, 0
  br i1 %58, label %.sink.split, label %._crit_edge

._crit_edge:                                      ; preds = %55
  %.pre = load i32, ptr %1, align 4, !tbaa !40
  br label %59

59:                                               ; preds = %._crit_edge, %.thread
  %60 = phi i32 [ %.pre, %._crit_edge ], [ %54, %.thread ]
  %61 = icmp slt i32 %60, 0
  br i1 %61, label %.sink.split, label %62

62:                                               ; preds = %59
  %63 = getelementptr inbounds nuw i8, ptr %1, i64 4
  %64 = load i32, ptr %63, align 4, !tbaa !41
  %65 = icmp slt i32 %64, 1
  br i1 %65, label %.sink.split, label %67

.sink.split:                                      ; preds = %59, %62, %55
  %.str.7.sink = phi ptr [ @.str.6, %55 ], [ @.str.7, %62 ], [ @.str.7, %59 ]
  %.0.ph = phi i32 [ %57, %55 ], [ -22, %62 ], [ -22, %59 ]
  %66 = load ptr, ptr %46, align 8, !tbaa !51
  call void (ptr, i32, ptr, ...) @av_log(ptr noundef nonnull %6, i32 noundef 16, ptr noundef nonnull %.str.7.sink, ptr noundef %66) #4
  br label %67

67:                                               ; preds = %.sink.split, %62
  %.0 = phi i32 [ 0, %62 ], [ %.0.ph, %.sink.split ]
  call void @llvm.lifetime.end.p0(i64 8, ptr nonnull %4) #4
  call void @llvm.lifetime.end.p0(i64 56, ptr nonnull %3) #4
  ret i32 %.0
}